target datalayout = "e-m:e-p270:32:32-p271:32:32-p272:64:64-i64:64-i128:128-f80:128-n8:16:32:64-S128"
target triple = "x86_64-pc-linux-gnu"

%struct.TCGContext = type { ptr, ptr, ptr, ptr, ptr, i32, i32, i32, i32, i32, i32, i32, i8, i8, i8, i32, i32, i64, i64, i64, ptr, ptr, ptr, ptr, ptr, i64, ptr, ptr, ptr, ptr, %struct.anon, ptr, ptr, ptr, ptr, ptr, [6 x ptr], [6 x %struct.TCGTempSet], [512 x %struct.TCGTemp], %union.anon, %union.anon, %struct.anon.0, ptr, [32 x ptr], [512 x i16], ptr, [1 x %struct.__jmp_buf_tag] }
%struct.anon = type { ptr, ptr }
%struct.TCGTempSet = type { [8 x i64] }
%struct.TCGTemp = type { i64, i64, ptr, i64, ptr, i64, ptr }
%union.anon = type { %struct.QTailQLink }
%struct.QTailQLink = type { ptr, ptr }
%struct.anon.0 = type { ptr, ptr }
%struct.__jmp_buf_tag = type { [8 x i64], i32, %struct.__sigset_t }
%struct.__sigset_t = type { [16 x i64] }

@tcg_ctx = external thread_local global ptr, align 8

; Function Attrs: nounwind sspstrong uwtable
define dso_local void @tcg_gen_qemu_ld_i128_chk(ptr noundef %0, ptr noundef %1, i64 noundef %2, i32 noundef %3, i32 noundef %4) #0 {
  %6 = alloca ptr, align 8
  %7 = alloca ptr, align 8
  %8 = alloca i64, align 8
  %9 = alloca i32, align 4
  %10 = alloca i32, align 4
  store ptr %0, ptr %6, align 8
  store ptr %1, ptr %7, align 8
  store i64 %2, ptr %8, align 8
  store i32 %3, ptr %9, align 4
  store i32 %4, ptr %10, align 4
  br label %11

11:                                               ; preds = %5
  %12 = load i32, ptr %10, align 4
  %13 = call align 8 ptr @llvm.threadlocal.address.p0(ptr align 8 @tcg_ctx)
  %14 = load ptr, ptr %13, align 8
  %15 = getelementptr inbounds nuw %struct.TCGContext, ptr %14, i32 0, i32 10
  %16 = load i32, ptr %15, align 4
  %17 = icmp eq i32 %12, %16
  br i1 %17, label %19, label %18

18:                                               ; preds = %11
  unreachable

19:                                               ; preds = %11
  br label %20

20:                                               ; preds = %19
  br label %21

21:                                               ; preds = %20
  %22 = load i32, ptr %9, align 4
  %23 = and i32 %22, 7
  %24 = icmp eq i32 %23, 4
  br i1 %24, label %26, label %25

25:                                               ; preds = %21
  unreachable

26:                                               ; preds = %21
  br label %27

27:                                               ; preds = %26
  br label %28

28:                                               ; preds = %27
  %29 = load i32, ptr %9, align 4
  %30 = and i32 %29, 8
  %31 = icmp eq i32 %30, 0
  br i1 %31, label %33, label %32

32:                                               ; preds = %28
  unreachable

33:                                               ; preds = %28
  br label %34

34:                                               ; preds = %33
  %35 = load ptr, ptr %6, align 8
  %36 = load ptr, ptr %7, align 8
  %37 = load i64, ptr %8, align 8
  %38 = load i32, ptr %9, align 4
  call void @tcg_gen_qemu_ld_i128_int(ptr noundef %35, ptr noundef %36, i64 noundef %37, i32 noundef %38)
  ret void
}